; Function Attrs: nounwind uwtable
define nonnull ptr @l_Lean_FileMap_rangeContainsHoverPos___boxed(ptr noundef %0, ptr noundef %1, ptr noundef %2, ptr noundef %3) local_unnamed_addr #1 {
  %5 = ptrtoint ptr %3 to i64
  %6 = and i64 %5, 1
  %.not = icmp eq i64 %6, 0
  br i1 %.not, label %7, label %lean_dec.exit12

7:                                                ; preds = %4
  %8 = load i32, ptr %3, align 4, !tbaa !4
  %9 = icmp sgt i32 %8, 1
  br i1 %9, label %10, label %12, !prof !11

10:                                               ; preds = %7
  %11 = add nsw i32 %8, -1
  store i32 %11, ptr %3, align 4, !tbaa !4
  br label %lean_dec.exit12

12:                                               ; preds = %7
  %.not.i = icmp eq i32 %8, 0
  br i1 %.not.i, label %lean_dec.exit12, label %13

13:                                               ; preds = %12
  tail call void @lean_dec_ref_cold(ptr noundef nonnull %3) #6
  br label %lean_dec.exit12

lean_dec.exit12:                                  ; preds = %13, %12, %10, %4
  %14 = and i64 %5, 510
  %15 = icmp eq i64 %14, 0
  br i1 %15, label %16, label %l_Lean_FileMap_rangeContainsHoverPos.exit

16:                                               ; preds = %lean_dec.exit12
  %17 = getelementptr inbounds nuw i8, ptr %1, i64 16
  %18 = load ptr, ptr %17, align 8, !tbaa !9
  %19 = getelementptr inbounds nuw i8, ptr %0, i64 8
  %20 = load ptr, ptr %19, align 8, !tbaa !9
  %21 = getelementptr i8, ptr %20, i64 8
  %.val.i = load i64, ptr %21, align 8, !tbaa !12
  %22 = shl i64 %.val.i, 1
  %23 = add i64 %22, -1
  %24 = inttoptr i64 %23 to ptr
  %25 = ptrtoint ptr %18 to i64
  %26 = and i64 %25, 1
  %.not.i19 = icmp eq i64 %26, 0
  br i1 %.not.i19, label %.critedge.i.i, label %27, !prof !14

27:                                               ; preds = %16
  %28 = icmp eq ptr %18, %24
  br label %lean_dec.exit.i

.critedge.i.i:                                    ; preds = %16
  %29 = tail call zeroext i1 @lean_nat_big_eq(ptr noundef %18, ptr noundef nonnull %24) #6
  br label %lean_dec.exit.i

lean_dec.exit.i:                                  ; preds = %.critedge.i.i, %27
  %.0.i.i = phi i1 [ %28, %27 ], [ %29, %.critedge.i.i ]
  %30 = zext i1 %.0.i.i to i8
  br label %l_Lean_FileMap_rangeContainsHoverPos.exit

l_Lean_FileMap_rangeContainsHoverPos.exit:        ; preds = %lean_dec.exit12, %lean_dec.exit.i
  %.sink.i = phi i8 [ %30, %lean_dec.exit.i ], [ 1, %lean_dec.exit12 ]
  %31 = tail call zeroext i8 @l_String_Range_contains(ptr noundef %1, ptr noundef %2, i8 noundef zeroext %.sink.i) #6
  %32 = ptrtoint ptr %2 to i64
  %33 = and i64 %32, 1
  %.not20 = icmp eq i64 %33, 0
  br i1 %.not20, label %34, label %lean_dec.exit11

34:                                               ; preds = %l_Lean_FileMap_rangeContainsHoverPos.exit
  %35 = load i32, ptr %2, align 4, !tbaa !4
  %36 = icmp sgt i32 %35, 1
  br i1 %36, label %37, label %39, !prof !11

37:                                               ; preds = %34
  %38 = add nsw i32 %35, -1
  store i32 %38, ptr %2, align 4, !tbaa !4
  br label %lean_dec.exit11

39:                                               ; preds = %34
  %.not.i13 = icmp eq i32 %35, 0
  br i1 %.not.i13, label %lean_dec.exit11, label %40

40:                                               ; preds = %39
  tail call void @lean_dec_ref_cold(ptr noundef nonnull %2) #6
  br label %lean_dec.exit11

lean_dec.exit11:                                  ; preds = %40, %39, %37, %l_Lean_FileMap_rangeContainsHoverPos.exit
  %41 = ptrtoint ptr %1 to i64
  %42 = and i64 %41, 1
  %.not21 = icmp eq i64 %42, 0
  br i1 %.not21, label %43, label %lean_dec.exit10

43:                                               ; preds = %lean_dec.exit11
  %44 = load i32, ptr %1, align 4, !tbaa !4
  %45 = icmp sgt i32 %44, 1
  br i1 %45, label %46, label %48, !prof !11

46:                                               ; preds = %43
  %47 = add nsw i32 %44, -1
  store i32 %47, ptr %1, align 4, !tbaa !4
  br label %lean_dec.exit10

48:                                               ; preds = %43
  %.not.i15 = icmp eq i32 %44, 0
  br i1 %.not.i15, label %lean_dec.exit10, label %49

49:                                               ; preds = %48
  tail call void @lean_dec_ref_cold(ptr noundef nonnull %1) #6
  br label %lean_dec.exit10

lean_dec.exit10:                                  ; preds = %49, %48, %46, %lean_dec.exit11
  %50 = ptrtoint ptr %0 to i64
  %51 = and i64 %50, 1
  %.not22 = icmp eq i64 %51, 0
  br i1 %.not22, label %52, label %lean_dec.exit

52:                                               ; preds = %lean_dec.exit10
  %53 = load i32, ptr %0, align 4, !tbaa !4
  %54 = icmp sgt i32 %53, 1
  br i1 %54, label %55, label %57, !prof !11

55:                                               ; preds = %52
  %56 = add nsw i32 %53, -1
  store i32 %56, ptr %0, align 4, !tbaa !4
  br label %lean_dec.exit

57:                                               ; preds = %52
  %.not.i17 = icmp eq i32 %53, 0
  br i1 %.not.i17, label %lean_dec.exit, label %58

58:                                               ; preds = %57
  tail call void @lean_dec_ref_cold(ptr noundef nonnull %0) #6
  br label %lean_dec.exit

lean_dec.exit:                                    ; preds = %58, %57, %55, %lean_dec.exit10
  %59 = zext i8 %31 to i64
  %60 = shl nuw nsw i64 %59, 1
  %61 = or disjoint i64 %60, 1
  %62 = inttoptr i64 %61 to ptr
  ret ptr %62
}